; Function Attrs: mustprogress uwtable
define void @_ZN16PacketListHeader15showColumnPrefsEv(ptr noundef nonnull align 8 dereferenceable(44) %0) #0 align 2 personality ptr @__gxx_personality_v0 {
  %2 = alloca %class.QString, align 8
  call void @_ZN10PrefsModel12typeToStringEi(ptr dead_on_unwind nonnull writable sret(%class.QString) align 8 %2, i32 noundef 259)
  invoke void @_ZN16PacketListHeader21showColumnPreferencesE7QString(ptr noundef nonnull align 8 dereferenceable(44) %0, ptr noundef nonnull %2)
          to label %3 unwind label %8

3:                                                ; preds = %1
  %4 = load ptr, ptr %2, align 8
  %.not.i.i.i = icmp eq ptr %4, null
  br i1 %.not.i.i.i, label %_ZN7QStringD2Ev.exit, label %_ZN17QArrayDataPointerIDsE5derefEv.exit.i.i

_ZN17QArrayDataPointerIDsE5derefEv.exit.i.i:      ; preds = %3
  %5 = atomicrmw sub ptr %4, i32 1 seq_cst, align 4
  %.not.i.i = icmp eq i32 %5, 1
  br i1 %.not.i.i, label %6, label %_ZN7QStringD2Ev.exit

6:                                                ; preds = %_ZN17QArrayDataPointerIDsE5derefEv.exit.i.i
  %7 = load ptr, ptr %2, align 8
  call void @_ZN10QArrayData10deallocateEPS_xx(ptr noundef %7, i64 noundef 2, i64 noundef 8) #10
  br label %_ZN7QStringD2Ev.exit

_ZN7QStringD2Ev.exit:                             ; preds = %3, %_ZN17QArrayDataPointerIDsE5derefEv.exit.i.i, %6
  ret void

8:                                                ; preds = %1
  %9 = landingpad { ptr, i32 }
          cleanup
  %10 = load ptr, ptr %2, align 8
  %.not.i.i.i2 = icmp eq ptr %10, null
  br i1 %.not.i.i.i2, label %_ZN7QStringD2Ev.exit5, label %_ZN17QArrayDataPointerIDsE5derefEv.exit.i.i3

_ZN17QArrayDataPointerIDsE5derefEv.exit.i.i3:     ; preds = %8
  %11 = atomicrmw sub ptr %10, i32 1 seq_cst, align 4
  %.not.i.i4 = icmp eq i32 %11, 1
  br i1 %.not.i.i4, label %12, label %_ZN7QStringD2Ev.exit5

12:                                               ; preds = %_ZN17QArrayDataPointerIDsE5derefEv.exit.i.i3
  %13 = load ptr, ptr %2, align 8
  call void @_ZN10QArrayData10deallocateEPS_xx(ptr noundef %13, i64 noundef 2, i64 noundef 8) #10
  br label %_ZN7QStringD2Ev.exit5

_ZN7QStringD2Ev.exit5:                            ; preds = %8, %_ZN17QArrayDataPointerIDsE5derefEv.exit.i.i3, %12
  resume { ptr, i32 } %9
}